target datalayout = "e-m:e-p270:32:32-p271:32:32-p272:64:64-i64:64-i128:128-f80:128-n8:16:32:64-S128"
target triple = "x86_64-pc-linux-gnu"

%struct.QVirtioPCIDevice = type { %struct.QOSGraphObject, %struct.QVirtioDevice, ptr, %struct.QPCIBar, ptr, i16, i64, i32, i32, i32, i32, i32, i32, i32 }
%struct.QOSGraphObject = type { ptr, ptr, ptr, ptr, ptr }
%struct.QVirtioDevice = type { ptr, i16, i64, i8, i8 }
%struct.QPCIBar = type { i64, i8 }

@.str = private unnamed_addr constant [47 x i8] c"../qemu/tests/qtest/libqos/virtio-pci-modern.c\00", align 1
@__func__.set_features = private unnamed_addr constant [13 x i8] c"set_features\00", align 1
@.str.3 = private unnamed_addr constant [45 x i8] c"features & (1ull << VIRTIO_F_VERSION_1) != 0\00", align 1
@.str.4 = private unnamed_addr constant [3 x i8] c"!=\00", align 1

; Function Attrs: nounwind sspstrong uwtable
define internal void @set_features(ptr noundef %0, i64 noundef %1) #0 {
  %3 = alloca ptr, align 8
  %4 = alloca i64, align 8
  %5 = alloca ptr, align 8
  %6 = alloca ptr, align 8
  %7 = alloca ptr, align 8
  %8 = alloca i64, align 8
  %9 = alloca i64, align 8
  store ptr %0, ptr %3, align 8
  store i64 %1, ptr %4, align 8
  call void @llvm.lifetime.start.p0(i64 8, ptr %5) #5
  call void @llvm.lifetime.start.p0(i64 8, ptr %6) #5
  %10 = load ptr, ptr %3, align 8
  store ptr %10, ptr %6, align 8
  %11 = load ptr, ptr %6, align 8
  %12 = getelementptr inbounds i8, ptr %11, i64 -40
  store ptr %12, ptr %7, align 8
  call void @llvm.lifetime.end.p0(i64 8, ptr %6) #5
  %13 = load ptr, ptr %7, align 8
  store ptr %13, ptr %5, align 8
  br label %14

14:                                               ; preds = %2
  call void @llvm.lifetime.start.p0(i64 8, ptr %8) #5
  %15 = load i64, ptr %4, align 8
  %16 = and i64 %15, 4294967296
  store i64 %16, ptr %8, align 8
  call void @llvm.lifetime.start.p0(i64 8, ptr %9) #5
  store i64 0, ptr %9, align 8
  %17 = load i64, ptr %8, align 8
  %18 = load i64, ptr %9, align 8
  %19 = icmp ne i64 %17, %18
  br i1 %19, label %20, label %21

20:                                               ; preds = %14
  br label %26

21:                                               ; preds = %14
  %22 = load i64, ptr %8, align 8
  %23 = uitofp i64 %22 to x86_fp80
  %24 = load i64, ptr %9, align 8
  %25 = uitofp i64 %24 to x86_fp80
  call void @g_assertion_message_cmpnum(ptr noundef null, ptr noundef @.str, i32 noundef 67, ptr noundef @__func__.set_features, ptr noundef @.str.3, x86_fp80 noundef %23, ptr noundef @.str.4, x86_fp80 noundef %25, i8 noundef signext 120)
  br label %26

26:                                               ; preds = %21, %20
  call void @llvm.lifetime.end.p0(i64 8, ptr %9) #5
  call void @llvm.lifetime.end.p0(i64 8, ptr %8) #5
  br label %27

27:                                               ; preds = %26
  br label %28

28:                                               ; preds = %27
  %29 = load ptr, ptr %5, align 8
  %30 = getelementptr inbounds nuw %struct.QVirtioPCIDevice, ptr %29, i32 0, i32 2
  %31 = load ptr, ptr %30, align 8
  %32 = load ptr, ptr %5, align 8
  %33 = getelementptr inbounds nuw %struct.QVirtioPCIDevice, ptr %32, i32 0, i32 3
  %34 = load ptr, ptr %5, align 8
  %35 = getelementptr inbounds nuw %struct.QVirtioPCIDevice, ptr %34, i32 0, i32 9
  %36 = load i32, ptr %35, align 8
  %37 = zext i32 %36 to i64
  %38 = add i64 %37, 8
  %39 = getelementptr inbounds nuw { i64, i8 }, ptr %33, i32 0, i32 0
  %40 = load i64, ptr %39, align 8
  %41 = getelementptr inbounds nuw { i64, i8 }, ptr %33, i32 0, i32 1
  %42 = load i8, ptr %41, align 8
  call void @qpci_io_writel(ptr noundef %31, i64 %40, i8 %42, i64 noundef %38, i32 noundef 0)
  %43 = load ptr, ptr %5, align 8
  %44 = getelementptr inbounds nuw %struct.QVirtioPCIDevice, ptr %43, i32 0, i32 2
  %45 = load ptr, ptr %44, align 8
  %46 = load ptr, ptr %5, align 8
  %47 = getelementptr inbounds nuw %struct.QVirtioPCIDevice, ptr %46, i32 0, i32 3
  %48 = load ptr, ptr %5, align 8
  %49 = getelementptr inbounds nuw %struct.QVirtioPCIDevice, ptr %48, i32 0, i32 9
  %50 = load i32, ptr %49, align 8
  %51 = zext i32 %50 to i64
  %52 = add i64 %51, 12
  %53 = load i64, ptr %4, align 8
  %54 = trunc i64 %53 to i32
  %55 = getelementptr inbounds nuw { i64, i8 }, ptr %47, i32 0, i32 0
  %56 = load i64, ptr %55, align 8
  %57 = getelementptr inbounds nuw { i64, i8 }, ptr %47, i32 0, i32 1
  %58 = load i8, ptr %57, align 8
  call void @qpci_io_writel(ptr noundef %45, i64 %56, i8 %58, i64 noundef %52, i32 noundef %54)
  %59 = load ptr, ptr %5, align 8
  %60 = getelementptr inbounds nuw %struct.QVirtioPCIDevice, ptr %59, i32 0, i32 2
  %61 = load ptr, ptr %60, align 8
  %62 = load ptr, ptr %5, align 8
  %63 = getelementptr inbounds nuw %struct.QVirtioPCIDevice, ptr %62, i32 0, i32 3
  %64 = load ptr, ptr %5, align 8
  %65 = getelementptr inbounds nuw %struct.QVirtioPCIDevice, ptr %64, i32 0, i32 9
  %66 = load i32, ptr %65, align 8
  %67 = zext i32 %66 to i64
  %68 = add i64 %67, 8
  %69 = getelementptr inbounds nuw { i64, i8 }, ptr %63, i32 0, i32 0
  %70 = load i64, ptr %69, align 8
  %71 = getelementptr inbounds nuw { i64, i8 }, ptr %63, i32 0, i32 1
  %72 = load i8, ptr %71, align 8
  call void @qpci_io_writel(ptr noundef %61, i64 %70, i8 %72, i64 noundef %68, i32 noundef 1)
  %73 = load ptr, ptr %5, align 8
  %74 = getelementptr inbounds nuw %struct.QVirtioPCIDevice, ptr %73, i32 0, i32 2
  %75 = load ptr, ptr %74, align 8
  %76 = load ptr, ptr %5, align 8
  %77 = getelementptr inbounds nuw %struct.QVirtioPCIDevice, ptr %76, i32 0, i32 3
  %78 = load ptr, ptr %5, align 8
  %79 = getelementptr inbounds nuw %struct.QVirtioPCIDevice, ptr %78, i32 0, i32 9
  %80 = load i32, ptr %79, align 8
  %81 = zext i32 %80 to i64
  %82 = add i64 %81, 12
  %83 = load i64, ptr %4, align 8
  %84 = lshr i64 %83, 32
  %85 = trunc i64 %84 to i32
  %86 = getelementptr inbounds nuw { i64, i8 }, ptr %77, i32 0, i32 0
  %87 = load i64, ptr %86, align 8
  %88 = getelementptr inbounds nuw { i64, i8 }, ptr %77, i32 0, i32 1
  %89 = load i8, ptr %88, align 8
  call void @qpci_io_writel(ptr noundef %75, i64 %87, i8 %89, i64 noundef %82, i32 noundef %85)
  call void @llvm.lifetime.end.p0(i64 8, ptr %5) #5
  ret void
}