; Function Attrs: nounwind sspstrong uwtable
define internal void @set_features(ptr noundef readonly captures(none) %0, i64 noundef %1) #0 {
  %3 = and i64 %1, 4294967296
  %.not = icmp eq i64 %3, 0
  br i1 %.not, label %4, label %5

4:                                                ; preds = %2
  tail call void @g_assertion_message_cmpnum(ptr noundef null, ptr noundef nonnull @.str, i32 noundef 67, ptr noundef nonnull @__func__.set_features, ptr noundef nonnull @.str.3, x86_fp80 noundef 0xK00000000000000000000, ptr noundef nonnull @.str.4, x86_fp80 noundef 0xK00000000000000000000, i8 noundef signext 120) #3
  br label %5

5:                                                ; preds = %2, %4
  %6 = getelementptr inbounds nuw i8, ptr %0, i64 32
  %7 = load ptr, ptr %6, align 8
  %8 = getelementptr inbounds nuw i8, ptr %0, i64 40
  %9 = getelementptr inbounds nuw i8, ptr %0, i64 88
  %10 = load i32, ptr %9, align 8
  %11 = zext i32 %10 to i64
  %12 = add nuw nsw i64 %11, 8
  %13 = load i64, ptr %8, align 8
  %14 = getelementptr inbounds nuw i8, ptr %0, i64 48
  %15 = load i8, ptr %14, align 8
  tail call void @qpci_io_writel(ptr noundef %7, i64 %13, i8 %15, i64 noundef %12, i32 noundef 0) #3
  %16 = load ptr, ptr %6, align 8
  %17 = load i32, ptr %9, align 8
  %18 = zext i32 %17 to i64
  %19 = add nuw nsw i64 %18, 12
  %20 = trunc i64 %1 to i32
  %21 = load i64, ptr %8, align 8
  %22 = load i8, ptr %14, align 8
  tail call void @qpci_io_writel(ptr noundef %16, i64 %21, i8 %22, i64 noundef %19, i32 noundef %20) #3
  %23 = load ptr, ptr %6, align 8
  %24 = load i32, ptr %9, align 8
  %25 = zext i32 %24 to i64
  %26 = add nuw nsw i64 %25, 8
  %27 = load i64, ptr %8, align 8
  %28 = load i8, ptr %14, align 8
  tail call void @qpci_io_writel(ptr noundef %23, i64 %27, i8 %28, i64 noundef %26, i32 noundef 1) #3
  %29 = load ptr, ptr %6, align 8
  %30 = load i32, ptr %9, align 8
  %31 = zext i32 %30 to i64
  %32 = add nuw nsw i64 %31, 12
  %33 = lshr i64 %1, 32
  %34 = trunc nuw i64 %33 to i32
  %35 = load i64, ptr %8, align 8
  %36 = load i8, ptr %14, align 8
  tail call void @qpci_io_writel(ptr noundef %29, i64 %35, i8 %36, i64 noundef %32, i32 noundef %34) #3
  ret void
}